target datalayout = "e-m:e-p270:32:32-p271:32:32-p272:64:64-i64:64-i128:128-f80:128-n8:16:32:64-S128"
target triple = "x86_64-pc-linux-gnu"

%struct.mbedtls_ssl_context = type { ptr, i32, i32, i32, i32, i32, ptr, ptr, ptr, ptr, ptr, ptr, ptr, ptr, ptr, ptr, ptr, ptr, ptr, ptr, ptr, ptr, ptr, ptr, ptr, ptr, ptr, ptr, ptr, ptr, ptr, ptr, ptr, i32, i64, i64, i16, i64, i64, i64, i64, i32, i32, i8, i8, i32, i8, ptr, ptr, ptr, ptr, ptr, ptr, ptr, i32, i64, i64, [8 x i8], i16, ptr, ptr, ptr, i64, i32, i64, [12 x i8], [12 x i8], [32 x i8], i8, i8, ptr, ptr, %union.mbedtls_ssl_user_data_t }
%union.mbedtls_ssl_user_data_t = type { i64 }
%struct.mbedtls_mpi = type { ptr, i16, i16 }
%struct.mbedtls_ssl_handshake_params = type { i8, i8, i8, i8, i8, i32, i8, i8, i8, i8, ptr, ptr, ptr, ptr, ptr, i8, i8, i8, i8, i16, i16, [20 x i16], ptr, ptr, %struct.mbedtls_dhm_context, %struct.mbedtls_ecdh_context, i16, i64, i32, i8, [1024 x i8], i64, ptr, ptr, i64, i16, ptr, ptr, ptr, ptr, %struct.anon, ptr, i16, i8, i32, i32, i32, ptr, ptr, ptr, i32, ptr, [8 x i8], i8, [32 x i8], i8, i16, %struct.mbedtls_md_context_t, %struct.mbedtls_md_context_t, i16, i8, %union.anon.1, [64 x i8], [1076 x i8], i64, i32, i32, i8, ptr, ptr, %union.anon.4, %struct.mbedtls_ssl_tls13_handshake_secrets, ptr, i64, ptr }
%struct.mbedtls_dhm_context = type { %struct.mbedtls_mpi, %struct.mbedtls_mpi, %struct.mbedtls_mpi, %struct.mbedtls_mpi, %struct.mbedtls_mpi, %struct.mbedtls_mpi, %struct.mbedtls_mpi, %struct.mbedtls_mpi, %struct.mbedtls_mpi, %struct.mbedtls_mpi }
%struct.mbedtls_ecdh_context = type { i8, i32, i32, %union.anon }
%union.anon = type { %struct.mbedtls_ecdh_context_mbed }
%struct.mbedtls_ecdh_context_mbed = type { %struct.mbedtls_ecp_group, %struct.mbedtls_mpi, %struct.mbedtls_ecp_point, %struct.mbedtls_ecp_point, %struct.mbedtls_mpi }
%struct.mbedtls_ecp_group = type { i32, %struct.mbedtls_mpi, %struct.mbedtls_mpi, %struct.mbedtls_mpi, %struct.mbedtls_ecp_point, %struct.mbedtls_mpi, i64, i64, i32, ptr, ptr, ptr, ptr, ptr, i64 }
%struct.mbedtls_ecp_point = type { %struct.mbedtls_mpi, %struct.mbedtls_mpi, %struct.mbedtls_mpi }
%struct.anon = type { i64, i8, [4 x %struct.mbedtls_ssl_hs_buffer], %struct.anon.0 }
%struct.mbedtls_ssl_hs_buffer = type { i8, ptr, i64 }
%struct.anon.0 = type { ptr, i64, i32 }
%struct.mbedtls_md_context_t = type { ptr, ptr, ptr }
%union.anon.1 = type { %struct.anon.2 }
%struct.anon.2 = type { i8, [64 x i8], i64 }
%union.anon.4 = type { [64 x i8] }
%struct.mbedtls_ssl_tls13_handshake_secrets = type { [64 x i8], [64 x i8] }

@.str = private unnamed_addr constant [130 x i8] c"generated/home/dtcxzyw/WorkSpace/Projects/compilers/llvm-opt-benchmark/bench/lief/bench_build/mbed_src/library/ssl_tls13_client.c\00", align 1
@.str.34 = private unnamed_addr constant [25 x i8] c"missing input data in %s\00", align 1
@.str.48 = private unnamed_addr constant [30 x i8] c"ssl_tls13_parse_key_share_ext\00", align 1
@.str.64 = private unnamed_addr constant [55 x i8] c"Invalid server key share, our group %u, their group %u\00", align 1
@.str.65 = private unnamed_addr constant [19 x i8] c"DHE group name: %s\00", align 1

; Function Attrs: inlinehint nounwind uwtable
define internal i32 @mbedtls_ssl_tls13_named_group_is_ffdh(i16 noundef zeroext %0) #3 {
  %2 = alloca i16, align 2
  store i16 %0, ptr %2, align 2, !tbaa !47
  %3 = load i16, ptr %2, align 2, !tbaa !47
  %4 = zext i16 %3 to i32
  %5 = icmp sge i32 %4, 256
  br i1 %5, label %6, label %10

6:                                                ; preds = %1
  %7 = load i16, ptr %2, align 2, !tbaa !47
  %8 = zext i16 %7 to i32
  %9 = icmp sle i32 %8, 260
  br label %10

10:                                               ; preds = %6, %1
  %11 = phi i1 [ false, %1 ], [ %9, %6 ]
  %12 = zext i1 %11 to i32
  ret i32 %12
}

; Function Attrs: inlinehint nounwind uwtable
define internal i32 @mbedtls_ssl_tls13_named_group_is_ecdhe(i16 noundef zeroext %0) #3 {
  %2 = alloca i16, align 2
  store i16 %0, ptr %2, align 2, !tbaa !47
  %3 = load i16, ptr %2, align 2, !tbaa !47
  %4 = zext i16 %3 to i32
  %5 = icmp eq i32 %4, 29
  br i1 %5, label %22, label %6

6:                                                ; preds = %1
  %7 = load i16, ptr %2, align 2, !tbaa !47
  %8 = zext i16 %7 to i32
  %9 = icmp eq i32 %8, 23
  br i1 %9, label %22, label %10

10:                                               ; preds = %6
  %11 = load i16, ptr %2, align 2, !tbaa !47
  %12 = zext i16 %11 to i32
  %13 = icmp eq i32 %12, 24
  br i1 %13, label %22, label %14

14:                                               ; preds = %10
  %15 = load i16, ptr %2, align 2, !tbaa !47
  %16 = zext i16 %15 to i32
  %17 = icmp eq i32 %16, 25
  br i1 %17, label %22, label %18

18:                                               ; preds = %14
  %19 = load i16, ptr %2, align 2, !tbaa !47
  %20 = zext i16 %19 to i32
  %21 = icmp eq i32 %20, 30
  br label %22

22:                                               ; preds = %18, %14, %10, %6, %1
  %23 = phi i1 [ true, %14 ], [ true, %10 ], [ true, %6 ], [ true, %1 ], [ %21, %18 ]
  %24 = zext i1 %23 to i32
  ret i32 %24
}

; Function Attrs: alwaysinline nounwind uwtable
define internal zeroext i16 @mbedtls_get_unaligned_uint16(ptr noundef %0) #4 {
  %2 = alloca ptr, align 8
  %3 = alloca i16, align 2
  store ptr %0, ptr %2, align 8, !tbaa !46
  call void @llvm.lifetime.start.p0(i64 2, ptr %3) #10
  %4 = load ptr, ptr %2, align 8, !tbaa !46
  call void @llvm.memcpy.p0.p0.i64(ptr align 2 %3, ptr align 1 %4, i64 2, i1 false)
  %5 = load i16, ptr %3, align 2, !tbaa !47
  call void @llvm.lifetime.end.p0(i64 2, ptr %3) #10
  ret i16 %5
}

; Function Attrs: inlinehint nounwind uwtable
define internal i32 @mbedtls_ssl_chk_buf_ptr(ptr noundef %0, ptr noundef %1, i64 noundef %2) #3 {
  %4 = alloca ptr, align 8
  %5 = alloca ptr, align 8
  %6 = alloca i64, align 8
  store ptr %0, ptr %4, align 8, !tbaa !8
  store ptr %1, ptr %5, align 8, !tbaa !8
  store i64 %2, ptr %6, align 8, !tbaa !14
  %7 = load ptr, ptr %4, align 8, !tbaa !8
  %8 = load ptr, ptr %5, align 8, !tbaa !8
  %9 = icmp ugt ptr %7, %8
  br i1 %9, label %18, label %10

10:                                               ; preds = %3
  %11 = load i64, ptr %6, align 8, !tbaa !14
  %12 = load ptr, ptr %5, align 8, !tbaa !8
  %13 = load ptr, ptr %4, align 8, !tbaa !8
  %14 = ptrtoint ptr %12 to i64
  %15 = ptrtoint ptr %13 to i64
  %16 = sub i64 %14, %15
  %17 = icmp ugt i64 %11, %16
  br label %18

18:                                               ; preds = %10, %3
  %19 = phi i1 [ true, %3 ], [ %17, %10 ]
  %20 = zext i1 %19 to i32
  ret i32 %20
}

; Function Attrs: nounwind uwtable
define internal i32 @ssl_tls13_parse_key_share_ext(ptr noundef %0, ptr noundef %1, ptr noundef %2) #0 {
  %4 = alloca i32, align 4
  %5 = alloca ptr, align 8
  %6 = alloca ptr, align 8
  %7 = alloca ptr, align 8
  %8 = alloca i32, align 4
  %9 = alloca ptr, align 8
  %10 = alloca i16, align 2
  %11 = alloca i16, align 2
  %12 = alloca i32, align 4
  store ptr %0, ptr %5, align 8, !tbaa !3
  store ptr %1, ptr %6, align 8, !tbaa !8
  store ptr %2, ptr %7, align 8, !tbaa !8
  call void @llvm.lifetime.start.p0(i64 4, ptr %8) #10
  store i32 -110, ptr %8, align 4, !tbaa !12
  call void @llvm.lifetime.start.p0(i64 8, ptr %9) #10
  %13 = load ptr, ptr %6, align 8, !tbaa !8
  store ptr %13, ptr %9, align 8, !tbaa !8
  call void @llvm.lifetime.start.p0(i64 2, ptr %10) #10
  call void @llvm.lifetime.start.p0(i64 2, ptr %11) #10
  br label %14

14:                                               ; preds = %3
  %15 = load ptr, ptr %9, align 8, !tbaa !8
  %16 = load ptr, ptr %7, align 8, !tbaa !8
  %17 = call i32 @mbedtls_ssl_chk_buf_ptr(ptr noundef %15, ptr noundef %16, i64 noundef 2)
  %18 = icmp ne i32 %17, 0
  br i1 %18, label %19, label %22

19:                                               ; preds = %14
  %20 = load ptr, ptr %5, align 8, !tbaa !3
  call void (ptr, i32, ptr, i32, ptr, ...) @mbedtls_debug_print_msg(ptr noundef %20, i32 noundef 1, ptr noundef @.str, i32 noundef 477, ptr noundef @.str.34, ptr noundef @.str.48)
  %21 = load ptr, ptr %5, align 8, !tbaa !3
  call void @mbedtls_ssl_pend_fatal_alert(ptr noundef %21, i8 noundef zeroext 50, i32 noundef -29440)
  store i32 -29440, ptr %4, align 4
  store i32 1, ptr %12, align 4
  br label %78

22:                                               ; preds = %14
  br label %23

23:                                               ; preds = %22
  br label %24

24:                                               ; preds = %23
  %25 = load ptr, ptr %9, align 8, !tbaa !8
  %26 = getelementptr inbounds i8, ptr %25, i64 0
  %27 = call zeroext i16 @mbedtls_get_unaligned_uint16(ptr noundef %26)
  %28 = call i16 @llvm.bswap.i16(i16 %27)
  %29 = zext i16 %28 to i32
  %30 = trunc i32 %29 to i16
  store i16 %30, ptr %10, align 2, !tbaa !47
  %31 = load ptr, ptr %9, align 8, !tbaa !8
  %32 = getelementptr inbounds i8, ptr %31, i64 2
  store ptr %32, ptr %9, align 8, !tbaa !8
  %33 = load ptr, ptr %5, align 8, !tbaa !3
  %34 = getelementptr inbounds nuw %struct.mbedtls_ssl_context, ptr %33, i32 0, i32 16
  %35 = load ptr, ptr %34, align 8, !tbaa !52
  %36 = getelementptr inbounds nuw %struct.mbedtls_ssl_handshake_params, ptr %35, i32 0, i32 59
  %37 = load i16, ptr %36, align 8, !tbaa !68
  store i16 %37, ptr %11, align 2, !tbaa !47
  %38 = load i16, ptr %11, align 2, !tbaa !47
  %39 = zext i16 %38 to i32
  %40 = load i16, ptr %10, align 2, !tbaa !47
  %41 = zext i16 %40 to i32
  %42 = icmp ne i32 %39, %41
  br i1 %42, label %43, label %50

43:                                               ; preds = %24
  %44 = load ptr, ptr %5, align 8, !tbaa !3
  %45 = load i16, ptr %11, align 2, !tbaa !47
  %46 = zext i16 %45 to i32
  %47 = load i16, ptr %10, align 2, !tbaa !47
  %48 = zext i16 %47 to i32
  call void (ptr, i32, ptr, i32, ptr, ...) @mbedtls_debug_print_msg(ptr noundef %44, i32 noundef 1, ptr noundef @.str, i32 noundef 486, ptr noundef @.str.64, i32 noundef %46, i32 noundef %48)
  %49 = load ptr, ptr %5, align 8, !tbaa !3
  call void @mbedtls_ssl_pend_fatal_alert(ptr noundef %49, i8 noundef zeroext 40, i32 noundef -28160)
  store i32 -28160, ptr %4, align 4
  store i32 1, ptr %12, align 4
  br label %78

50:                                               ; preds = %24
  %51 = load i16, ptr %10, align 2, !tbaa !47
  %52 = call i32 @mbedtls_ssl_tls13_named_group_is_ecdhe(i16 noundef zeroext %51)
  %53 = icmp ne i32 %52, 0
  br i1 %53, label %58, label %54

54:                                               ; preds = %50
  %55 = load i16, ptr %10, align 2, !tbaa !47
  %56 = call i32 @mbedtls_ssl_tls13_named_group_is_ffdh(i16 noundef zeroext %55)
  %57 = icmp ne i32 %56, 0
  br i1 %57, label %58, label %75

58:                                               ; preds = %54, %50
  %59 = load ptr, ptr %5, align 8, !tbaa !3
  %60 = load i16, ptr %10, align 2, !tbaa !47
  %61 = call ptr @mbedtls_ssl_named_group_to_str(i16 noundef zeroext %60)
  call void (ptr, i32, ptr, i32, ptr, ...) @mbedtls_debug_print_msg(ptr noundef %59, i32 noundef 2, ptr noundef @.str, i32 noundef 496, ptr noundef @.str.65, ptr noundef %61)
  %62 = load ptr, ptr %5, align 8, !tbaa !3
  %63 = load ptr, ptr %9, align 8, !tbaa !8
  %64 = load ptr, ptr %7, align 8, !tbaa !8
  %65 = load ptr, ptr %9, align 8, !tbaa !8
  %66 = ptrtoint ptr %64 to i64
  %67 = ptrtoint ptr %65 to i64
  %68 = sub i64 %66, %67
  %69 = call i32 @mbedtls_ssl_tls13_read_public_xxdhe_share(ptr noundef %62, ptr noundef %63, i64 noundef %68)
  store i32 %69, ptr %8, align 4, !tbaa !12
  %70 = load i32, ptr %8, align 4, !tbaa !12
  %71 = icmp ne i32 %70, 0
  br i1 %71, label %72, label %74

72:                                               ; preds = %58
  %73 = load i32, ptr %8, align 4, !tbaa !12
  store i32 %73, ptr %4, align 4
  store i32 1, ptr %12, align 4
  br label %78

74:                                               ; preds = %58
  br label %76

75:                                               ; preds = %54
  store i32 -27648, ptr %4, align 4
  store i32 1, ptr %12, align 4
  br label %78

76:                                               ; preds = %74
  %77 = load i32, ptr %8, align 4, !tbaa !12
  store i32 %77, ptr %4, align 4
  store i32 1, ptr %12, align 4
  br label %78

78:                                               ; preds = %76, %75, %72, %43, %19
  call void @llvm.lifetime.end.p0(i64 2, ptr %11) #10
  call void @llvm.lifetime.end.p0(i64 2, ptr %10) #10
  call void @llvm.lifetime.end.p0(i64 8, ptr %9) #10
  call void @llvm.lifetime.end.p0(i64 4, ptr %8) #10
  %79 = load i32, ptr %4, align 4
  ret i32 %79
}