; Function Attrs: nounwind uwtable
define internal fastcc i32 @ssl_tls13_parse_key_share_ext(ptr noundef %0, ptr noundef %1, ptr noundef %2) unnamed_addr #0 {
  %4 = icmp ule ptr %1, %2
  %5 = ptrtoint ptr %2 to i64
  %6 = ptrtoint ptr %1 to i64
  %7 = sub i64 %5, %6
  %8 = icmp ugt i64 %7, 1
  %narrow.i.not = and i1 %4, %8
  br i1 %narrow.i.not, label %10, label %9

9:                                                ; preds = %3
  tail call void (ptr, i32, ptr, i32, ptr, ...) @mbedtls_debug_print_msg(ptr noundef %0, i32 noundef 1, ptr noundef nonnull @.str, i32 noundef 477, ptr noundef nonnull @.str.34, ptr noundef nonnull @.str.48) #12
  tail call void @mbedtls_ssl_pend_fatal_alert(ptr noundef %0, i8 noundef zeroext 50, i32 noundef -29440) #12
  br label %27

10:                                               ; preds = %3
  %.0.copyload.i = load i16, ptr %1, align 1
  %11 = tail call i16 @llvm.bswap.i16(i16 %.0.copyload.i)
  %12 = getelementptr inbounds nuw i8, ptr %1, i64 2
  %13 = getelementptr inbounds nuw i8, ptr %0, i64 112
  %14 = load ptr, ptr %13, align 8, !tbaa !17
  %15 = getelementptr inbounds nuw i8, ptr %14, i64 2032
  %16 = load i16, ptr %15, align 8, !tbaa !62
  %.not28 = icmp eq i16 %16, %11
  br i1 %.not28, label %20, label %17

17:                                               ; preds = %10
  %18 = zext i16 %11 to i32
  %19 = zext i16 %16 to i32
  tail call void (ptr, i32, ptr, i32, ptr, ...) @mbedtls_debug_print_msg(ptr noundef nonnull %0, i32 noundef 1, ptr noundef nonnull @.str, i32 noundef 486, ptr noundef nonnull @.str.64, i32 noundef %19, i32 noundef %18) #12
  tail call void @mbedtls_ssl_pend_fatal_alert(ptr noundef nonnull %0, i8 noundef zeroext 40, i32 noundef -28160) #12
  br label %27

20:                                               ; preds = %10
  switch i16 %11, label %mbedtls_ssl_tls13_named_group_is_ecdhe.exit [
    i16 29, label %mbedtls_ssl_tls13_named_group_is_ecdhe.exit.thread
    i16 25, label %mbedtls_ssl_tls13_named_group_is_ecdhe.exit.thread
    i16 24, label %mbedtls_ssl_tls13_named_group_is_ecdhe.exit.thread
    i16 23, label %mbedtls_ssl_tls13_named_group_is_ecdhe.exit.thread
  ]

mbedtls_ssl_tls13_named_group_is_ecdhe.exit:      ; preds = %20
  %.not = icmp ne i16 %.0.copyload.i, 7680
  %21 = add i16 %11, -261
  %22 = icmp ult i16 %21, -5
  %or.cond = and i1 %.not, %22
  br i1 %or.cond, label %27, label %mbedtls_ssl_tls13_named_group_is_ecdhe.exit.thread

mbedtls_ssl_tls13_named_group_is_ecdhe.exit.thread: ; preds = %20, %20, %20, %20, %mbedtls_ssl_tls13_named_group_is_ecdhe.exit
  %23 = tail call ptr @mbedtls_ssl_named_group_to_str(i16 noundef zeroext %11) #12
  tail call void (ptr, i32, ptr, i32, ptr, ...) @mbedtls_debug_print_msg(ptr noundef nonnull %0, i32 noundef 2, ptr noundef nonnull @.str, i32 noundef 496, ptr noundef nonnull @.str.65, ptr noundef %23) #12
  %24 = ptrtoint ptr %12 to i64
  %25 = sub i64 %5, %24
  %26 = tail call i32 @mbedtls_ssl_tls13_read_public_xxdhe_share(ptr noundef nonnull %0, ptr noundef nonnull %12, i64 noundef %25) #12
  br label %27

27:                                               ; preds = %mbedtls_ssl_tls13_named_group_is_ecdhe.exit, %mbedtls_ssl_tls13_named_group_is_ecdhe.exit.thread, %17, %9
  %.0 = phi i32 [ -29440, %9 ], [ -28160, %17 ], [ %26, %mbedtls_ssl_tls13_named_group_is_ecdhe.exit.thread ], [ -27648, %mbedtls_ssl_tls13_named_group_is_ecdhe.exit ]
  ret i32 %.0
}